; Function Attrs: nounwind uwtable
define ptr @l_Int_Linear_Poly_pickVarToElim_x3f(ptr noundef %0) local_unnamed_addr #1 {
  %2 = ptrtoint ptr %0 to i64
  %3 = and i64 %2, 1
  %.not.i22 = icmp eq i64 %3, 0
  br i1 %.not.i22, label %lean_obj_tag.exit.thread, label %lean_obj_tag.exit

lean_obj_tag.exit:                                ; preds = %1
  %4 = and i64 %2, 8589934590
  %5 = icmp eq i64 %4, 0
  br i1 %5, label %lean_dec.exit19, label %14

lean_obj_tag.exit.thread:                         ; preds = %1
  %6 = getelementptr i8, ptr %0, i64 4
  %.val.i = load i32, ptr %6, align 4
  %7 = icmp ult i32 %.val.i, 16777216
  br i1 %7, label %.thread, label %14

.thread:                                          ; preds = %lean_obj_tag.exit.thread
  %8 = load i32, ptr %0, align 4, !tbaa !4
  %9 = icmp sgt i32 %8, 1
  br i1 %9, label %10, label %12, !prof !11

10:                                               ; preds = %.thread
  %11 = add nsw i32 %8, -1
  store i32 %11, ptr %0, align 4, !tbaa !4
  br label %lean_dec.exit19

12:                                               ; preds = %.thread
  %.not.i = icmp eq i32 %8, 0
  br i1 %.not.i, label %lean_dec.exit19, label %13

13:                                               ; preds = %12
  tail call void @lean_dec_ref_cold(ptr noundef nonnull %0) #7
  br label %lean_dec.exit19

14:                                               ; preds = %lean_obj_tag.exit.thread, %lean_obj_tag.exit
  %15 = getelementptr inbounds nuw i8, ptr %0, i64 8
  %16 = load ptr, ptr %15, align 8, !tbaa !9
  %17 = ptrtoint ptr %16 to i64
  %18 = and i64 %17, 1
  %.not = icmp eq i64 %18, 0
  br i1 %.not, label %19, label %lean_inc.exit18

19:                                               ; preds = %14
  %.val.i23 = load i32, ptr %16, align 4, !tbaa !4
  %20 = icmp sgt i32 %.val.i23, 0
  br i1 %20, label %21, label %23, !prof !11

21:                                               ; preds = %19
  %22 = add nuw i32 %.val.i23, 1
  store i32 %22, ptr %16, align 4, !tbaa !4
  br label %lean_inc.exit18

23:                                               ; preds = %19
  %.not.i24 = icmp eq i32 %.val.i23, 0
  br i1 %.not.i24, label %lean_inc.exit18, label %24

24:                                               ; preds = %23
  tail call void @lean_inc_ref_cold(ptr noundef nonnull %16) #7
  br label %lean_inc.exit18

lean_inc.exit18:                                  ; preds = %24, %23, %21, %14
  %25 = getelementptr inbounds nuw i8, ptr %0, i64 16
  %26 = load ptr, ptr %25, align 8, !tbaa !9
  %27 = ptrtoint ptr %26 to i64
  %28 = and i64 %27, 1
  %.not32 = icmp eq i64 %28, 0
  br i1 %.not32, label %29, label %lean_inc.exit17

29:                                               ; preds = %lean_inc.exit18
  %.val.i25 = load i32, ptr %26, align 4, !tbaa !4
  %30 = icmp sgt i32 %.val.i25, 0
  br i1 %30, label %31, label %33, !prof !11

31:                                               ; preds = %29
  %32 = add nuw i32 %.val.i25, 1
  store i32 %32, ptr %26, align 4, !tbaa !4
  br label %lean_inc.exit17

33:                                               ; preds = %29
  %.not.i26 = icmp eq i32 %.val.i25, 0
  br i1 %.not.i26, label %lean_inc.exit17, label %34

34:                                               ; preds = %33
  tail call void @lean_inc_ref_cold(ptr noundef nonnull %26) #7
  br label %lean_inc.exit17

lean_inc.exit17:                                  ; preds = %34, %33, %31, %lean_inc.exit18
  %35 = getelementptr inbounds nuw i8, ptr %0, i64 24
  %36 = load ptr, ptr %35, align 8, !tbaa !9
  %37 = ptrtoint ptr %36 to i64
  %38 = and i64 %37, 1
  %.not33 = icmp eq i64 %38, 0
  br i1 %.not33, label %39, label %lean_inc.exit

39:                                               ; preds = %lean_inc.exit17
  %.val.i28 = load i32, ptr %36, align 4, !tbaa !4
  %40 = icmp sgt i32 %.val.i28, 0
  br i1 %40, label %41, label %43, !prof !11

41:                                               ; preds = %39
  %42 = add nuw i32 %.val.i28, 1
  store i32 %42, ptr %36, align 4, !tbaa !4
  br label %lean_inc.exit

43:                                               ; preds = %39
  %.not.i29 = icmp eq i32 %.val.i28, 0
  br i1 %.not.i29, label %lean_inc.exit, label %44

44:                                               ; preds = %43
  tail call void @lean_inc_ref_cold(ptr noundef nonnull %36) #7
  br label %lean_inc.exit

lean_inc.exit:                                    ; preds = %44, %43, %41, %lean_inc.exit17
  br i1 %.not.i22, label %45, label %lean_dec.exit

45:                                               ; preds = %lean_inc.exit
  %46 = load i32, ptr %0, align 4, !tbaa !4
  %47 = icmp sgt i32 %46, 1
  br i1 %47, label %48, label %50, !prof !11

48:                                               ; preds = %45
  %49 = add nsw i32 %46, -1
  store i32 %49, ptr %0, align 4, !tbaa !4
  br label %lean_dec.exit

50:                                               ; preds = %45
  %.not.i20 = icmp eq i32 %46, 0
  br i1 %.not.i20, label %lean_dec.exit, label %51

51:                                               ; preds = %50
  tail call void @lean_dec_ref_cold(ptr noundef nonnull %0) #7
  br label %lean_dec.exit

lean_dec.exit:                                    ; preds = %51, %50, %48, %lean_inc.exit
  %52 = tail call ptr @l_Int_Linear_Poly_pickVarToElim_x3f_go(ptr noundef %16, ptr noundef %26, ptr noundef %36)
  tail call void @lean_inc_heartbeat() #7
  %53 = tail call noalias ptr @mi_malloc_small(i64 noundef 16) #7
  %54 = icmp eq ptr %53, null
  br i1 %54, label %55, label %lean_alloc_ctor.exit

55:                                               ; preds = %lean_dec.exit
  tail call void @lean_internal_panic_out_of_memory() #8
  unreachable

lean_alloc_ctor.exit:                             ; preds = %lean_dec.exit
  %56 = getelementptr inbounds nuw i8, ptr %53, i64 4
  store i32 1, ptr %53, align 4, !tbaa !4
  store i32 16842768, ptr %56, align 4
  %57 = getelementptr inbounds nuw i8, ptr %53, i64 8
  store ptr %52, ptr %57, align 8, !tbaa !9
  br label %lean_dec.exit19

lean_dec.exit19:                                  ; preds = %lean_obj_tag.exit, %10, %12, %13, %lean_alloc_ctor.exit
  %.0 = phi ptr [ %53, %lean_alloc_ctor.exit ], [ inttoptr (i64 1 to ptr), %13 ], [ inttoptr (i64 1 to ptr), %12 ], [ inttoptr (i64 1 to ptr), %10 ], [ inttoptr (i64 1 to ptr), %lean_obj_tag.exit ]
  ret ptr %.0
}